; Function Attrs: nounwind uwtable
define ptr @l_Array_mapMUnsafe_map___at_Lean_Compiler_LCNF_UnreachableBranches_elimDead_go___spec__7___lambda__1(ptr noundef %0, ptr noundef %1, ptr readnone captures(none) %2, ptr noundef %3, ptr noundef %4, ptr noundef %5, ptr noundef %6, ptr noundef %7) local_unnamed_addr #1 {
  %9 = tail call ptr @l_Lean_Compiler_LCNF_Alt_getCode(ptr noundef %0) #8
  %10 = tail call ptr @l_Lean_Compiler_LCNF_eraseCode(ptr noundef %9, ptr noundef %3, ptr noundef %4, ptr noundef %5, ptr noundef %6, ptr noundef %7) #8
  %11 = ptrtoint ptr %9 to i64
  %12 = and i64 %11, 1
  %.not = icmp eq i64 %12, 0
  br i1 %.not, label %13, label %lean_dec.exit32

13:                                               ; preds = %8
  %14 = load i32, ptr %9, align 4, !tbaa !4
  %15 = icmp sgt i32 %14, 1
  br i1 %15, label %16, label %18, !prof !13

16:                                               ; preds = %13
  %17 = add nsw i32 %14, -1
  store i32 %17, ptr %9, align 4, !tbaa !4
  br label %lean_dec.exit32

18:                                               ; preds = %13
  %.not.i = icmp eq i32 %14, 0
  br i1 %.not.i, label %lean_dec.exit32, label %19

19:                                               ; preds = %18
  tail call void @lean_dec_ref_cold(ptr noundef nonnull %9) #8
  br label %lean_dec.exit32

lean_dec.exit32:                                  ; preds = %19, %18, %16, %8
  %.val = load i32, ptr %10, align 4, !tbaa !4
  %20 = icmp eq i32 %.val, 1
  br i1 %20, label %21, label %39

21:                                               ; preds = %lean_dec.exit32
  %22 = getelementptr inbounds nuw i8, ptr %10, i64 8
  %23 = load ptr, ptr %22, align 8, !tbaa !11
  %24 = ptrtoint ptr %23 to i64
  %25 = and i64 %24, 1
  %.not42 = icmp eq i64 %25, 0
  br i1 %.not42, label %26, label %lean_dec.exit31

26:                                               ; preds = %21
  %27 = load i32, ptr %23, align 4, !tbaa !4
  %28 = icmp sgt i32 %27, 1
  br i1 %28, label %29, label %31, !prof !13

29:                                               ; preds = %26
  %30 = add nsw i32 %27, -1
  store i32 %30, ptr %23, align 4, !tbaa !4
  br label %lean_dec.exit31

31:                                               ; preds = %26
  %.not.i33 = icmp eq i32 %27, 0
  br i1 %.not.i33, label %lean_dec.exit31, label %32

32:                                               ; preds = %31
  tail call void @lean_dec_ref_cold(ptr noundef nonnull %23) #8
  br label %lean_dec.exit31

lean_dec.exit31:                                  ; preds = %32, %31, %29, %21
  tail call void @lean_inc_heartbeat() #8
  %33 = tail call noalias ptr @mi_malloc_small(i64 noundef 16) #8
  %34 = icmp eq ptr %33, null
  br i1 %34, label %35, label %lean_alloc_ctor.exit

35:                                               ; preds = %lean_dec.exit31
  tail call void @lean_internal_panic_out_of_memory() #7
  unreachable

lean_alloc_ctor.exit:                             ; preds = %lean_dec.exit31
  %36 = getelementptr inbounds nuw i8, ptr %33, i64 4
  store i32 1, ptr %33, align 4, !tbaa !4
  store i32 100728848, ptr %36, align 4
  %37 = getelementptr inbounds nuw i8, ptr %33, i64 8
  store ptr %1, ptr %37, align 8, !tbaa !11
  %38 = tail call ptr @l___private_Lean_Compiler_LCNF_Basic_0__Lean_Compiler_LCNF_updateAltCodeImp(ptr noundef %0, ptr noundef nonnull %33) #8
  store ptr %38, ptr %22, align 8, !tbaa !11
  br label %71

39:                                               ; preds = %lean_dec.exit32
  %40 = getelementptr inbounds nuw i8, ptr %10, i64 16
  %41 = load ptr, ptr %40, align 8, !tbaa !11
  %42 = ptrtoint ptr %41 to i64
  %43 = and i64 %42, 1
  %.not40 = icmp eq i64 %43, 0
  br i1 %.not40, label %44, label %lean_inc.exit

44:                                               ; preds = %39
  %.val.i = load i32, ptr %41, align 4, !tbaa !4
  %45 = icmp sgt i32 %.val.i, 0
  br i1 %45, label %46, label %48, !prof !13

46:                                               ; preds = %44
  %47 = add nuw i32 %.val.i, 1
  store i32 %47, ptr %41, align 4, !tbaa !4
  br label %lean_inc.exit

48:                                               ; preds = %44
  %.not.i37 = icmp eq i32 %.val.i, 0
  br i1 %.not.i37, label %lean_inc.exit, label %49

49:                                               ; preds = %48
  tail call void @lean_inc_ref_cold(ptr noundef nonnull %41) #8
  br label %lean_inc.exit

lean_inc.exit:                                    ; preds = %49, %48, %46, %39
  %50 = ptrtoint ptr %10 to i64
  %51 = and i64 %50, 1
  %.not41 = icmp eq i64 %51, 0
  br i1 %.not41, label %52, label %lean_dec.exit

52:                                               ; preds = %lean_inc.exit
  %53 = load i32, ptr %10, align 4, !tbaa !4
  %54 = icmp sgt i32 %53, 1
  br i1 %54, label %55, label %57, !prof !13

55:                                               ; preds = %52
  %56 = add nsw i32 %53, -1
  store i32 %56, ptr %10, align 4, !tbaa !4
  br label %lean_dec.exit

57:                                               ; preds = %52
  %.not.i35 = icmp eq i32 %53, 0
  br i1 %.not.i35, label %lean_dec.exit, label %58

58:                                               ; preds = %57
  tail call void @lean_dec_ref_cold(ptr noundef nonnull %10) #8
  br label %lean_dec.exit

lean_dec.exit:                                    ; preds = %58, %57, %55, %lean_inc.exit
  tail call void @lean_inc_heartbeat() #8
  %59 = tail call noalias ptr @mi_malloc_small(i64 noundef 16) #8
  %60 = icmp eq ptr %59, null
  br i1 %60, label %61, label %lean_alloc_ctor.exit38

61:                                               ; preds = %lean_dec.exit
  tail call void @lean_internal_panic_out_of_memory() #7
  unreachable

lean_alloc_ctor.exit38:                           ; preds = %lean_dec.exit
  %62 = getelementptr inbounds nuw i8, ptr %59, i64 4
  store i32 1, ptr %59, align 4, !tbaa !4
  store i32 100728848, ptr %62, align 4
  %63 = getelementptr inbounds nuw i8, ptr %59, i64 8
  store ptr %1, ptr %63, align 8, !tbaa !11
  %64 = tail call ptr @l___private_Lean_Compiler_LCNF_Basic_0__Lean_Compiler_LCNF_updateAltCodeImp(ptr noundef %0, ptr noundef nonnull %59) #8
  tail call void @lean_inc_heartbeat() #8
  %65 = tail call noalias ptr @mi_malloc_small(i64 noundef 24) #8
  %66 = icmp eq ptr %65, null
  br i1 %66, label %67, label %lean_alloc_ctor.exit39

67:                                               ; preds = %lean_alloc_ctor.exit38
  tail call void @lean_internal_panic_out_of_memory() #7
  unreachable

lean_alloc_ctor.exit39:                           ; preds = %lean_alloc_ctor.exit38
  %68 = getelementptr inbounds nuw i8, ptr %65, i64 4
  store i32 1, ptr %65, align 4, !tbaa !4
  store i32 131096, ptr %68, align 4
  %69 = getelementptr inbounds nuw i8, ptr %65, i64 8
  store ptr %64, ptr %69, align 8, !tbaa !11
  %70 = getelementptr inbounds nuw i8, ptr %65, i64 16
  store ptr %41, ptr %70, align 8, !tbaa !11
  br label %71

71:                                               ; preds = %lean_alloc_ctor.exit39, %lean_alloc_ctor.exit
  %.0 = phi ptr [ %10, %lean_alloc_ctor.exit ], [ %65, %lean_alloc_ctor.exit39 ]
  ret ptr %.0
}